; Function Attrs: mustprogress uwtable
define void @_ZN5draco11CornerTable6CreateERKNS_15IndexTypeVectorINS_9IndexTypeIjNS_19FaceIndex_tag_type_EEESt5arrayINS2_IjNS_21VertexIndex_tag_type_EEELm3EEEE(ptr dead_on_unwind noalias writable writeonly sret(%"class.std::unique_ptr") align 8 captures(none) %0, ptr noundef nonnull readonly align 8 captures(none) dereferenceable(24) %1) local_unnamed_addr #4 align 2 personality ptr @__gxx_personality_v0 {
  %3 = alloca %"class.std::unique_ptr", align 8
  call void @llvm.lifetime.start.p0(i64 8, ptr nonnull %3) #18
  %4 = tail call noalias noundef nonnull dereferenceable(168) ptr @_Znwm(i64 noundef 168) #19
  invoke void @_ZN5draco11CornerTableC1Ev(ptr noundef nonnull align 8 dereferenceable(168) %4)
          to label %5 unwind label %9

5:                                                ; preds = %2
  store ptr %4, ptr %3, align 8, !tbaa !3
  %6 = ptrtoint ptr %4 to i64
  %7 = invoke noundef zeroext i1 @_ZN5draco11CornerTable4InitERKNS_15IndexTypeVectorINS_9IndexTypeIjNS_19FaceIndex_tag_type_EEESt5arrayINS2_IjNS_21VertexIndex_tag_type_EEELm3EEEE(ptr noundef nonnull align 8 dereferenceable(168) %4, ptr noundef nonnull align 8 dereferenceable(24) %1)
          to label %8 unwind label %11

8:                                                ; preds = %5
  br i1 %7, label %.thread, label %_ZNKSt14default_deleteIN5draco11CornerTableEEclEPS1_.exit.i

9:                                                ; preds = %2
  %10 = landingpad { ptr, i32 }
          cleanup
  tail call void @_ZdlPvm(ptr noundef nonnull %4, i64 noundef 168) #20
  br label %13

11:                                               ; preds = %5
  %12 = landingpad { ptr, i32 }
          cleanup
  call void @_ZNSt10unique_ptrIN5draco11CornerTableESt14default_deleteIS1_EED2Ev(ptr noundef nonnull align 8 dereferenceable(8) %3) #18
  br label %13

.thread:                                          ; preds = %8
  store i64 %6, ptr %0, align 8, !tbaa !3
  br label %_ZNSt10unique_ptrIN5draco11CornerTableESt14default_deleteIS1_EED2Ev.exit

_ZNKSt14default_deleteIN5draco11CornerTableEEclEPS1_.exit.i: ; preds = %8
  store ptr null, ptr %0, align 8, !tbaa !8
  tail call void @_ZN5draco11CornerTableD2Ev(ptr noundef nonnull align 8 dereferenceable(168) %4) #18
  tail call void @_ZdlPvm(ptr noundef nonnull %4, i64 noundef 168) #20
  br label %_ZNSt10unique_ptrIN5draco11CornerTableESt14default_deleteIS1_EED2Ev.exit

_ZNSt10unique_ptrIN5draco11CornerTableESt14default_deleteIS1_EED2Ev.exit: ; preds = %.thread, %_ZNKSt14default_deleteIN5draco11CornerTableEEclEPS1_.exit.i
  call void @llvm.lifetime.end.p0(i64 8, ptr nonnull %3) #18
  ret void

13:                                               ; preds = %11, %9
  %.pn = phi { ptr, i32 } [ %12, %11 ], [ %10, %9 ]
  call void @llvm.lifetime.end.p0(i64 8, ptr nonnull %3) #18
  resume { ptr, i32 } %.pn
}